
NeoStrip5Channel_plus.elf:     file format elf32-avr

Sections:
Idx Name          Size      VMA       LMA       File off  Algn
  0 .data         00000002  00803800  00000418  000004ac  2**0
                  CONTENTS, ALLOC, LOAD, DATA
  1 .text         00000418  00000000  00000000  00000094  2**1
                  CONTENTS, ALLOC, LOAD, READONLY, CODE
  2 .bss          000000b4  00803802  00803802  000004ae  2**0
                  ALLOC
  3 .comment      00000030  00000000  00000000  000004ae  2**0
                  CONTENTS, READONLY
  4 .note.gnu.avr.deviceinfo 00000040  00000000  00000000  000004e0  2**2
                  CONTENTS, READONLY
  5 .debug_info   000019ed  00000000  00000000  00000520  2**0
                  CONTENTS, READONLY, DEBUGGING
  6 .debug_abbrev 00001888  00000000  00000000  00001f0d  2**0
                  CONTENTS, READONLY, DEBUGGING
  7 .debug_line   00000151  00000000  00000000  00003795  2**0
                  CONTENTS, READONLY, DEBUGGING
  8 .debug_str    00000acf  00000000  00000000  000038e6  2**0
                  CONTENTS, READONLY, DEBUGGING

Disassembly of section .text:

00000000 <__vectors>:
   0:	0c 94 3e 00 	jmp	0x7c	; 0x7c <__ctors_end>
   4:	0c 94 5b 00 	jmp	0xb6	; 0xb6 <__bad_interrupt>
   8:	0c 94 5b 00 	jmp	0xb6	; 0xb6 <__bad_interrupt>
   c:	0c 94 5b 00 	jmp	0xb6	; 0xb6 <__bad_interrupt>
  10:	0c 94 5b 00 	jmp	0xb6	; 0xb6 <__bad_interrupt>
  14:	0c 94 5b 00 	jmp	0xb6	; 0xb6 <__bad_interrupt>
  18:	0c 94 5b 00 	jmp	0xb6	; 0xb6 <__bad_interrupt>
  1c:	0c 94 5b 00 	jmp	0xb6	; 0xb6 <__bad_interrupt>
  20:	0c 94 5b 00 	jmp	0xb6	; 0xb6 <__bad_interrupt>
  24:	0c 94 5b 00 	jmp	0xb6	; 0xb6 <__bad_interrupt>
  28:	0c 94 5b 00 	jmp	0xb6	; 0xb6 <__bad_interrupt>
  2c:	0c 94 5b 00 	jmp	0xb6	; 0xb6 <__bad_interrupt>
  30:	0c 94 5b 00 	jmp	0xb6	; 0xb6 <__bad_interrupt>
  34:	0c 94 5b 00 	jmp	0xb6	; 0xb6 <__bad_interrupt>
  38:	0c 94 5b 00 	jmp	0xb6	; 0xb6 <__bad_interrupt>
  3c:	0c 94 5b 00 	jmp	0xb6	; 0xb6 <__bad_interrupt>
  40:	0c 94 5b 00 	jmp	0xb6	; 0xb6 <__bad_interrupt>
  44:	0c 94 5b 00 	jmp	0xb6	; 0xb6 <__bad_interrupt>
  48:	0c 94 5b 00 	jmp	0xb6	; 0xb6 <__bad_interrupt>
  4c:	0c 94 5b 00 	jmp	0xb6	; 0xb6 <__bad_interrupt>
  50:	0c 94 5b 00 	jmp	0xb6	; 0xb6 <__bad_interrupt>
  54:	0c 94 5b 00 	jmp	0xb6	; 0xb6 <__bad_interrupt>
  58:	0c 94 5b 00 	jmp	0xb6	; 0xb6 <__bad_interrupt>
  5c:	0c 94 5b 00 	jmp	0xb6	; 0xb6 <__bad_interrupt>
  60:	0c 94 5b 00 	jmp	0xb6	; 0xb6 <__bad_interrupt>
  64:	0c 94 5b 00 	jmp	0xb6	; 0xb6 <__bad_interrupt>
  68:	0c 94 5b 00 	jmp	0xb6	; 0xb6 <__bad_interrupt>
  6c:	0c 94 5b 00 	jmp	0xb6	; 0xb6 <__bad_interrupt>
  70:	0c 94 5b 00 	jmp	0xb6	; 0xb6 <__bad_interrupt>
  74:	0c 94 5b 00 	jmp	0xb6	; 0xb6 <__bad_interrupt>
  78:	0c 94 5b 00 	jmp	0xb6	; 0xb6 <__bad_interrupt>

0000007c <__ctors_end>:
  7c:	11 24       	eor	r1, r1
  7e:	1f be       	out	0x3f, r1	; 63
  80:	cf ef       	ldi	r28, 0xFF	; 255
  82:	cd bf       	out	0x3d, r28	; 61
  84:	df e3       	ldi	r29, 0x3F	; 63
  86:	de bf       	out	0x3e, r29	; 62

00000088 <__do_copy_data>:
  88:	18 e3       	ldi	r17, 0x38	; 56
  8a:	a0 e0       	ldi	r26, 0x00	; 0
  8c:	b8 e3       	ldi	r27, 0x38	; 56
  8e:	e8 e1       	ldi	r30, 0x18	; 24
  90:	f4 e0       	ldi	r31, 0x04	; 4
  92:	02 c0       	rjmp	.+4      	; 0x98 <__do_copy_data+0x10>
  94:	05 90       	lpm	r0, Z+
  96:	0d 92       	st	X+, r0
  98:	a2 30       	cpi	r26, 0x02	; 2
  9a:	b1 07       	cpc	r27, r17
  9c:	d9 f7       	brne	.-10     	; 0x94 <__do_copy_data+0xc>

0000009e <__do_clear_bss>:
  9e:	28 e3       	ldi	r18, 0x38	; 56
  a0:	a2 e0       	ldi	r26, 0x02	; 2
  a2:	b8 e3       	ldi	r27, 0x38	; 56
  a4:	01 c0       	rjmp	.+2      	; 0xa8 <.do_clear_bss_start>

000000a6 <.do_clear_bss_loop>:
  a6:	1d 92       	st	X+, r1

000000a8 <.do_clear_bss_start>:
  a8:	a6 3b       	cpi	r26, 0xB6	; 182
  aa:	b2 07       	cpc	r27, r18
  ac:	e1 f7       	brne	.-8      	; 0xa6 <.do_clear_bss_loop>
  ae:	0e 94 91 00 	call	0x122	; 0x122 <main>
  b2:	0c 94 0a 02 	jmp	0x414	; 0x414 <_exit>

000000b6 <__bad_interrupt>:
  b6:	0c 94 00 00 	jmp	0	; 0x0 <__vectors>

000000ba <sr595_init>:
  ba:	e0 e0       	ldi	r30, 0x00	; 0
  bc:	f4 e0       	ldi	r31, 0x04	; 4
  be:	80 81       	ld	r24, Z
  c0:	8e 60       	ori	r24, 0x0E	; 14
  c2:	80 83       	st	Z, r24
  c4:	0b 9a       	sbi	0x01, 3	; 1
  c6:	0a 98       	cbi	0x01, 2	; 1
  c8:	09 98       	cbi	0x01, 1	; 1
  ca:	08 95       	ret

000000cc <sr595_pulse>:
  cc:	0a 9a       	sbi	0x01, 2	; 1
  ce:	82 e4       	ldi	r24, 0x42	; 66
  d0:	8a 95       	dec	r24
  d2:	f1 f7       	brne	.-4      	; 0xd0 <sr595_pulse+0x4>
  d4:	00 c0       	rjmp	.+0      	; 0xd6 <sr595_pulse+0xa>
  d6:	0a 98       	cbi	0x01, 2	; 1
  d8:	82 e4       	ldi	r24, 0x42	; 66
  da:	8a 95       	dec	r24
  dc:	f1 f7       	brne	.-4      	; 0xda <sr595_pulse+0xe>
  de:	00 c0       	rjmp	.+0      	; 0xe0 <sr595_pulse+0x14>
  e0:	08 95       	ret

000000e2 <sr595_latch>:
  e2:	0b 9a       	sbi	0x01, 3	; 1
  e4:	82 e4       	ldi	r24, 0x42	; 66
  e6:	8a 95       	dec	r24
  e8:	f1 f7       	brne	.-4      	; 0xe6 <sr595_latch+0x4>
  ea:	00 c0       	rjmp	.+0      	; 0xec <sr595_latch+0xa>
  ec:	0b 98       	cbi	0x01, 3	; 1
  ee:	82 e4       	ldi	r24, 0x42	; 66
  f0:	8a 95       	dec	r24
  f2:	f1 f7       	brne	.-4      	; 0xf0 <sr595_latch+0xe>
  f4:	00 c0       	rjmp	.+0      	; 0xf6 <sr595_latch+0x14>
  f6:	08 95       	ret

000000f8 <sr595_shiftout>:
  f8:	cf 93       	push	r28
  fa:	df 93       	push	r29
  fc:	d8 2f       	mov	r29, r24
  fe:	0a 98       	cbi	0x01, 2	; 1
 100:	09 98       	cbi	0x01, 1	; 1
 102:	c8 e0       	ldi	r28, 0x08	; 8
 104:	d7 ff       	sbrs	r29, 7
 106:	02 c0       	rjmp	.+4      	; 0x10c <sr595_shiftout+0x14>
 108:	09 9a       	sbi	0x01, 1	; 1
 10a:	01 c0       	rjmp	.+2      	; 0x10e <sr595_shiftout+0x16>
 10c:	09 98       	cbi	0x01, 1	; 1
 10e:	0e 94 66 00 	call	0xcc	; 0xcc <sr595_pulse>
 112:	dd 0f       	add	r29, r29
 114:	c1 50       	subi	r28, 0x01	; 1
 116:	b1 f7       	brne	.-20     	; 0x104 <sr595_shiftout+0xc>
 118:	0a 98       	cbi	0x01, 2	; 1
 11a:	df 91       	pop	r29
 11c:	cf 91       	pop	r28
 11e:	0c 94 71 00 	jmp	0xe2	; 0xe2 <sr595_latch>

00000122 <main>:
 122:	88 ed       	ldi	r24, 0xD8	; 216
 124:	84 bf       	out	0x34, r24	; 52
 126:	10 92 61 00 	sts	0x0061, r1	; 0x800061 <__TEXT_REGION_LENGTH__+0x700061>
 12a:	0e 94 bc 00 	call	0x178	; 0x178 <neopixel_init>
 12e:	6f e0       	ldi	r22, 0x0F	; 15
 130:	82 e0       	ldi	r24, 0x02	; 2
 132:	98 e3       	ldi	r25, 0x38	; 56
 134:	0e 94 67 01 	call	0x2ce	; 0x2ce <neopixel_anim_init_rainbow_pulse>
 138:	8f e1       	ldi	r24, 0x1F	; 31
 13a:	0e 94 65 01 	call	0x2ca	; 0x2ca <neopixel_setchannel>
 13e:	82 e0       	ldi	r24, 0x02	; 2
 140:	98 e3       	ldi	r25, 0x38	; 56
 142:	0e 94 0e 01 	call	0x21c	; 0x21c <neopixel_show>
 146:	61 e0       	ldi	r22, 0x01	; 1
 148:	82 e0       	ldi	r24, 0x02	; 2
 14a:	98 e3       	ldi	r25, 0x38	; 56
 14c:	0e 94 cf 00 	call	0x19e	; 0x19e <neopixel_shift>
 150:	8a ef       	ldi	r24, 0xFA	; 250
 152:	90 e0       	ldi	r25, 0x00	; 0
 154:	0e 94 ad 00 	call	0x15a	; 0x15a <delay_ms>
 158:	f6 cf       	rjmp	.-20     	; 0x146 <main+0x24>

0000015a <delay_ms>:
 15a:	20 e0       	ldi	r18, 0x00	; 0
 15c:	30 e0       	ldi	r19, 0x00	; 0
 15e:	28 17       	cp	r18, r24
 160:	39 07       	cpc	r19, r25
 162:	4c f4       	brge	.+18     	; 0x176 <delay_ms+0x1c>
 164:	e7 e8       	ldi	r30, 0x87	; 135
 166:	f3 e1       	ldi	r31, 0x13	; 19
 168:	31 97       	sbiw	r30, 0x01	; 1
 16a:	f1 f7       	brne	.-4      	; 0x168 <delay_ms+0xe>
 16c:	00 c0       	rjmp	.+0      	; 0x16e <delay_ms+0x14>
 16e:	00 00       	nop
 170:	2f 5f       	subi	r18, 0xFF	; 255
 172:	3f 4f       	sbci	r19, 0xFF	; 255
 174:	f4 cf       	rjmp	.-24     	; 0x15e <delay_ms+0x4>
 176:	08 95       	ret

00000178 <neopixel_init>:
 178:	e0 e0       	ldi	r30, 0x00	; 0
 17a:	f4 e0       	ldi	r31, 0x04	; 4
 17c:	80 81       	ld	r24, Z
 17e:	80 61       	ori	r24, 0x10	; 16
 180:	80 83       	st	Z, r24
 182:	0c 94 5d 00 	jmp	0xba	; 0xba <sr595_init>

00000186 <neopixel_setPixel>:
 186:	0f 93       	push	r16
 188:	36 2f       	mov	r19, r22
 18a:	33 0f       	add	r19, r19
 18c:	63 0f       	add	r22, r19
 18e:	fc 01       	movw	r30, r24
 190:	e6 0f       	add	r30, r22
 192:	f1 1d       	adc	r31, r1
 194:	41 83       	std	Z+1, r20	; 0x01
 196:	20 83       	st	Z, r18
 198:	02 83       	std	Z+2, r16	; 0x02
 19a:	0f 91       	pop	r16
 19c:	08 95       	ret

0000019e <neopixel_shift>:
 19e:	cf 93       	push	r28
 1a0:	df 93       	push	r29
 1a2:	fc 01       	movw	r30, r24
 1a4:	dc 01       	movw	r26, r24
 1a6:	af 54       	subi	r26, 0x4F	; 79
 1a8:	bf 4f       	sbci	r27, 0xFF	; 255
 1aa:	ec 01       	movw	r28, r24
 1ac:	66 23       	and	r22, r22
 1ae:	b9 f0       	breq	.+46     	; 0x1de <neopixel_shift+0x40>
 1b0:	8c 81       	ldd	r24, Y+4	; 0x04
 1b2:	89 83       	std	Y+1, r24	; 0x01
 1b4:	8b 81       	ldd	r24, Y+3	; 0x03
 1b6:	88 83       	st	Y, r24
 1b8:	8d 81       	ldd	r24, Y+5	; 0x05
 1ba:	8a 83       	std	Y+2, r24	; 0x02
 1bc:	23 96       	adiw	r28, 0x03	; 3
 1be:	ac 17       	cp	r26, r28
 1c0:	bd 07       	cpc	r27, r29
 1c2:	b1 f7       	brne	.-20     	; 0x1b0 <neopixel_shift+0x12>
 1c4:	ef 01       	movw	r28, r30
 1c6:	ce 54       	subi	r28, 0x4E	; 78
 1c8:	df 4f       	sbci	r29, 0xFF	; 255
 1ca:	81 81       	ldd	r24, Z+1	; 0x01
 1cc:	88 83       	st	Y, r24
 1ce:	80 81       	ld	r24, Z
 1d0:	8c 93       	st	X, r24
 1d2:	df 01       	movw	r26, r30
 1d4:	ad 54       	subi	r26, 0x4D	; 77
 1d6:	bf 4f       	sbci	r27, 0xFF	; 255
 1d8:	82 81       	ldd	r24, Z+2	; 0x02
 1da:	8c 93       	st	X, r24
 1dc:	1c c0       	rjmp	.+56     	; 0x216 <neopixel_shift+0x78>
 1de:	ce 54       	subi	r28, 0x4E	; 78
 1e0:	df 4f       	sbci	r29, 0xFF	; 255
 1e2:	88 81       	ld	r24, Y
 1e4:	81 83       	std	Z+1, r24	; 0x01
 1e6:	8c 91       	ld	r24, X
 1e8:	80 83       	st	Z, r24
 1ea:	21 96       	adiw	r28, 0x01	; 1
 1ec:	88 81       	ld	r24, Y
 1ee:	82 83       	std	Z+2, r24	; 0x02
 1f0:	8e ea       	ldi	r24, 0xAE	; 174
 1f2:	ef 01       	movw	r28, r30
 1f4:	c8 0f       	add	r28, r24
 1f6:	d1 1d       	adc	r29, r1
 1f8:	99 81       	ldd	r25, Y+1	; 0x01
 1fa:	11 96       	adiw	r26, 0x01	; 1
 1fc:	9c 93       	st	X, r25
 1fe:	11 97       	sbiw	r26, 0x01	; 1
 200:	98 81       	ld	r25, Y
 202:	9c 93       	st	X, r25
 204:	9a 81       	ldd	r25, Y+2	; 0x02
 206:	12 96       	adiw	r26, 0x02	; 2
 208:	9c 93       	st	X, r25
 20a:	12 97       	sbiw	r26, 0x02	; 2
 20c:	83 50       	subi	r24, 0x03	; 3
 20e:	13 97       	sbiw	r26, 0x03	; 3
 210:	ae 17       	cp	r26, r30
 212:	bf 07       	cpc	r27, r31
 214:	71 f7       	brne	.-36     	; 0x1f2 <neopixel_shift+0x54>
 216:	df 91       	pop	r29
 218:	cf 91       	pop	r28
 21a:	08 95       	ret

0000021c <neopixel_show>:
 21c:	cf 93       	push	r28
 21e:	df 93       	push	r29
 220:	cd b7       	in	r28, 0x3d	; 61
 222:	de b7       	in	r29, 0x3e	; 62
 224:	26 97       	sbiw	r28, 0x06	; 6
 226:	cd bf       	out	0x3d, r28	; 61
 228:	de bf       	out	0x3e, r29	; 62
 22a:	24 eb       	ldi	r18, 0xB4	; 180
 22c:	30 e0       	ldi	r19, 0x00	; 0
 22e:	29 83       	std	Y+1, r18	; 0x01
 230:	3a 83       	std	Y+2, r19	; 0x02
 232:	dc 01       	movw	r26, r24
 234:	11 96       	adiw	r26, 0x01	; 1
 236:	fc 01       	movw	r30, r24
 238:	80 81       	ld	r24, Z
 23a:	8e 83       	std	Y+6, r24	; 0x06
 23c:	91 b1       	in	r25, 0x01	; 1
 23e:	80 91 00 38 	lds	r24, 0x3800	; 0x803800 <__data_start>
 242:	98 2b       	or	r25, r24
 244:	9c 83       	std	Y+4, r25	; 0x04
 246:	91 b1       	in	r25, 0x01	; 1
 248:	80 95       	com	r24
 24a:	89 23       	and	r24, r25
 24c:	8d 83       	std	Y+5, r24	; 0x05
 24e:	88 e0       	ldi	r24, 0x08	; 8
 250:	8b 83       	std	Y+3, r24	; 0x03
 252:	8c 81       	ldd	r24, Y+4	; 0x04
 254:	81 b9       	out	0x01, r24	; 1
 256:	4d 81       	ldd	r20, Y+5	; 0x05
 258:	5c 81       	ldd	r21, Y+4	; 0x04
 25a:	3e 81       	ldd	r19, Y+6	; 0x06
 25c:	2b 81       	ldd	r18, Y+3	; 0x03
 25e:	89 81       	ldd	r24, Y+1	; 0x01
 260:	9a 81       	ldd	r25, Y+2	; 0x02
 262:	e1 e0       	ldi	r30, 0x01	; 1
 264:	f0 e0       	ldi	r31, 0x00	; 0

00000266 <neo_start>:
 266:	40 83       	st	Z, r20
 268:	37 fd       	sbrc	r19, 7
 26a:	0e c0       	rjmp	.+28     	; 0x288 <do_HI>

0000026c <do_LOW>:
 26c:	00 00       	nop
 26e:	00 00       	nop
 270:	50 83       	st	Z, r21
	...
 286:	0e c0       	rjmp	.+28     	; 0x2a4 <next_bit>

00000288 <do_HI>:
	...
 298:	50 83       	st	Z, r21
 29a:	00 00       	nop
 29c:	00 00       	nop
 29e:	00 00       	nop
 2a0:	01 c0       	rjmp	.+2      	; 0x2a4 <next_bit>
	...

000002a4 <next_bit>:
 2a4:	2a 95       	dec	r18
 2a6:	11 f0       	breq	.+4      	; 0x2ac <next_byte>
 2a8:	33 1f       	adc	r19, r19
 2aa:	dd cf       	rjmp	.-70     	; 0x266 <neo_start>

000002ac <next_byte>:
 2ac:	28 e0       	ldi	r18, 0x08	; 8
 2ae:	3d 91       	ld	r19, X+
 2b0:	50 83       	st	Z, r21
 2b2:	01 97       	sbiw	r24, 0x01	; 1
 2b4:	c1 f6       	brne	.-80     	; 0x266 <neo_start>
 2b6:	3e 83       	std	Y+6, r19	; 0x06
 2b8:	2b 83       	std	Y+3, r18	; 0x03
 2ba:	89 83       	std	Y+1, r24	; 0x01
 2bc:	9a 83       	std	Y+2, r25	; 0x02
 2be:	26 96       	adiw	r28, 0x06	; 6
 2c0:	cd bf       	out	0x3d, r28	; 61
 2c2:	de bf       	out	0x3e, r29	; 62
 2c4:	df 91       	pop	r29
 2c6:	cf 91       	pop	r28
 2c8:	08 95       	ret

000002ca <neopixel_setchannel>:
 2ca:	0c 94 7c 00 	jmp	0xf8	; 0xf8 <sr595_shiftout>

000002ce <neopixel_anim_init_rainbow_pulse>:
 2ce:	7f 92       	push	r7
 2d0:	8f 92       	push	r8
 2d2:	9f 92       	push	r9
 2d4:	af 92       	push	r10
 2d6:	bf 92       	push	r11
 2d8:	cf 92       	push	r12
 2da:	df 92       	push	r13
 2dc:	ef 92       	push	r14
 2de:	ff 92       	push	r15
 2e0:	0f 93       	push	r16
 2e2:	1f 93       	push	r17
 2e4:	cf 93       	push	r28
 2e6:	df 93       	push	r29
 2e8:	7c 01       	movw	r14, r24
 2ea:	c6 2e       	mov	r12, r22
 2ec:	86 2f       	mov	r24, r22
 2ee:	65 e0       	ldi	r22, 0x05	; 5
 2f0:	0e 94 fe 01 	call	0x3fc	; 0x3fc <__udivmodqi4>
 2f4:	b8 2e       	mov	r11, r24
 2f6:	ac 2c       	mov	r10, r12
 2f8:	85 e0       	ldi	r24, 0x05	; 5
 2fa:	b8 9e       	mul	r11, r24
 2fc:	a0 18       	sub	r10, r0
 2fe:	11 24       	eor	r1, r1
 300:	d1 2c       	mov	r13, r1
 302:	c0 e0       	ldi	r28, 0x00	; 0
 304:	d0 e0       	ldi	r29, 0x00	; 0
 306:	9b 2c       	mov	r9, r11
 308:	91 94       	neg	r9
 30a:	1a 2d       	mov	r17, r10
 30c:	81 2c       	mov	r8, r1
 30e:	c3 30       	cpi	r28, 0x03	; 3
 310:	d1 05       	cpc	r29, r1
 312:	a9 f0       	breq	.+42     	; 0x33e <neopixel_anim_init_rainbow_pulse+0x70>
 314:	3c f4       	brge	.+14     	; 0x324 <neopixel_anim_init_rainbow_pulse+0x56>
 316:	c1 30       	cpi	r28, 0x01	; 1
 318:	d1 05       	cpc	r29, r1
 31a:	d9 f0       	breq	.+54     	; 0x352 <neopixel_anim_init_rainbow_pulse+0x84>
 31c:	c2 30       	cpi	r28, 0x02	; 2
 31e:	d1 05       	cpc	r29, r1
 320:	51 f0       	breq	.+20     	; 0x336 <neopixel_anim_init_rainbow_pulse+0x68>
 322:	06 c0       	rjmp	.+12     	; 0x330 <neopixel_anim_init_rainbow_pulse+0x62>
 324:	c4 30       	cpi	r28, 0x04	; 4
 326:	d1 05       	cpc	r29, r1
 328:	69 f0       	breq	.+26     	; 0x344 <neopixel_anim_init_rainbow_pulse+0x76>
 32a:	c5 30       	cpi	r28, 0x05	; 5
 32c:	d1 05       	cpc	r29, r1
 32e:	69 f0       	breq	.+26     	; 0x34a <neopixel_anim_init_rainbow_pulse+0x7c>
 330:	01 2f       	mov	r16, r17
 332:	41 2f       	mov	r20, r17
 334:	10 c0       	rjmp	.+32     	; 0x356 <neopixel_anim_init_rainbow_pulse+0x88>
 336:	21 2f       	mov	r18, r17
 338:	41 2f       	mov	r20, r17
 33a:	00 e0       	ldi	r16, 0x00	; 0
 33c:	0d c0       	rjmp	.+26     	; 0x358 <neopixel_anim_init_rainbow_pulse+0x8a>
 33e:	21 2f       	mov	r18, r17
 340:	00 e0       	ldi	r16, 0x00	; 0
 342:	05 c0       	rjmp	.+10     	; 0x34e <neopixel_anim_init_rainbow_pulse+0x80>
 344:	01 2f       	mov	r16, r17
 346:	21 2f       	mov	r18, r17
 348:	02 c0       	rjmp	.+4      	; 0x34e <neopixel_anim_init_rainbow_pulse+0x80>
 34a:	01 2f       	mov	r16, r17
 34c:	20 e0       	ldi	r18, 0x00	; 0
 34e:	40 e0       	ldi	r20, 0x00	; 0
 350:	03 c0       	rjmp	.+6      	; 0x358 <neopixel_anim_init_rainbow_pulse+0x8a>
 352:	41 2f       	mov	r20, r17
 354:	00 e0       	ldi	r16, 0x00	; 0
 356:	20 e0       	ldi	r18, 0x00	; 0
 358:	68 2d       	mov	r22, r8
 35a:	6d 0d       	add	r22, r13
 35c:	c7 01       	movw	r24, r14
 35e:	0e 94 c3 00 	call	0x186	; 0x186 <neopixel_setPixel>
 362:	83 94       	inc	r8
 364:	1b 0d       	add	r17, r11
 366:	85 e0       	ldi	r24, 0x05	; 5
 368:	88 12       	cpse	r8, r24
 36a:	d1 cf       	rjmp	.-94     	; 0x30e <neopixel_anim_init_rainbow_pulse+0x40>
 36c:	1c 2d       	mov	r17, r12
 36e:	81 2c       	mov	r8, r1
 370:	85 e0       	ldi	r24, 0x05	; 5
 372:	78 2e       	mov	r7, r24
 374:	7d 0c       	add	r7, r13
 376:	c3 30       	cpi	r28, 0x03	; 3
 378:	d1 05       	cpc	r29, r1
 37a:	a9 f0       	breq	.+42     	; 0x3a6 <neopixel_anim_init_rainbow_pulse+0xd8>
 37c:	3c f4       	brge	.+14     	; 0x38c <neopixel_anim_init_rainbow_pulse+0xbe>
 37e:	c1 30       	cpi	r28, 0x01	; 1
 380:	d1 05       	cpc	r29, r1
 382:	d9 f0       	breq	.+54     	; 0x3ba <neopixel_anim_init_rainbow_pulse+0xec>
 384:	c2 30       	cpi	r28, 0x02	; 2
 386:	d1 05       	cpc	r29, r1
 388:	51 f0       	breq	.+20     	; 0x39e <neopixel_anim_init_rainbow_pulse+0xd0>
 38a:	06 c0       	rjmp	.+12     	; 0x398 <neopixel_anim_init_rainbow_pulse+0xca>
 38c:	c4 30       	cpi	r28, 0x04	; 4
 38e:	d1 05       	cpc	r29, r1
 390:	69 f0       	breq	.+26     	; 0x3ac <neopixel_anim_init_rainbow_pulse+0xde>
 392:	c5 30       	cpi	r28, 0x05	; 5
 394:	d1 05       	cpc	r29, r1
 396:	69 f0       	breq	.+26     	; 0x3b2 <neopixel_anim_init_rainbow_pulse+0xe4>
 398:	01 2f       	mov	r16, r17
 39a:	41 2f       	mov	r20, r17
 39c:	10 c0       	rjmp	.+32     	; 0x3be <neopixel_anim_init_rainbow_pulse+0xf0>
 39e:	21 2f       	mov	r18, r17
 3a0:	41 2f       	mov	r20, r17
 3a2:	00 e0       	ldi	r16, 0x00	; 0
 3a4:	0d c0       	rjmp	.+26     	; 0x3c0 <neopixel_anim_init_rainbow_pulse+0xf2>
 3a6:	21 2f       	mov	r18, r17
 3a8:	00 e0       	ldi	r16, 0x00	; 0
 3aa:	05 c0       	rjmp	.+10     	; 0x3b6 <neopixel_anim_init_rainbow_pulse+0xe8>
 3ac:	01 2f       	mov	r16, r17
 3ae:	21 2f       	mov	r18, r17
 3b0:	02 c0       	rjmp	.+4      	; 0x3b6 <neopixel_anim_init_rainbow_pulse+0xe8>
 3b2:	01 2f       	mov	r16, r17
 3b4:	20 e0       	ldi	r18, 0x00	; 0
 3b6:	40 e0       	ldi	r20, 0x00	; 0
 3b8:	03 c0       	rjmp	.+6      	; 0x3c0 <neopixel_anim_init_rainbow_pulse+0xf2>
 3ba:	41 2f       	mov	r20, r17
 3bc:	00 e0       	ldi	r16, 0x00	; 0
 3be:	20 e0       	ldi	r18, 0x00	; 0
 3c0:	67 2d       	mov	r22, r7
 3c2:	68 0d       	add	r22, r8
 3c4:	c7 01       	movw	r24, r14
 3c6:	0e 94 c3 00 	call	0x186	; 0x186 <neopixel_setPixel>
 3ca:	83 94       	inc	r8
 3cc:	19 0d       	add	r17, r9
 3ce:	86 e0       	ldi	r24, 0x06	; 6
 3d0:	88 12       	cpse	r8, r24
 3d2:	d1 cf       	rjmp	.-94     	; 0x376 <neopixel_anim_init_rainbow_pulse+0xa8>
 3d4:	21 96       	adiw	r28, 0x01	; 1
 3d6:	8a e0       	ldi	r24, 0x0A	; 10
 3d8:	d8 0e       	add	r13, r24
 3da:	8c e3       	ldi	r24, 0x3C	; 60
 3dc:	d8 12       	cpse	r13, r24
 3de:	95 cf       	rjmp	.-214    	; 0x30a <neopixel_anim_init_rainbow_pulse+0x3c>
 3e0:	df 91       	pop	r29
 3e2:	cf 91       	pop	r28
 3e4:	1f 91       	pop	r17
 3e6:	0f 91       	pop	r16
 3e8:	ff 90       	pop	r15
 3ea:	ef 90       	pop	r14
 3ec:	df 90       	pop	r13
 3ee:	cf 90       	pop	r12
 3f0:	bf 90       	pop	r11
 3f2:	af 90       	pop	r10
 3f4:	9f 90       	pop	r9
 3f6:	8f 90       	pop	r8
 3f8:	7f 90       	pop	r7
 3fa:	08 95       	ret

000003fc <__udivmodqi4>:
 3fc:	99 1b       	sub	r25, r25
 3fe:	79 e0       	ldi	r23, 0x09	; 9
 400:	04 c0       	rjmp	.+8      	; 0x40a <__udivmodqi4_ep>

00000402 <__udivmodqi4_loop>:
 402:	99 1f       	adc	r25, r25
 404:	96 17       	cp	r25, r22
 406:	08 f0       	brcs	.+2      	; 0x40a <__udivmodqi4_ep>
 408:	96 1b       	sub	r25, r22

0000040a <__udivmodqi4_ep>:
 40a:	88 1f       	adc	r24, r24
 40c:	7a 95       	dec	r23
 40e:	c9 f7       	brne	.-14     	; 0x402 <__udivmodqi4_loop>
 410:	80 95       	com	r24
 412:	08 95       	ret

00000414 <_exit>:
 414:	f8 94       	cli

00000416 <__stop_program>:
 416:	ff cf       	rjmp	.-2      	; 0x416 <__stop_program>
